(dp1
S'output'
p2
S"<type 'exceptions.NameError'> name 'message' is not defined"
p3
sS'layer'
p4
S'C:\\Python27\\web2py\\applications\\taratorka\\views\\default/index.html'
p5
sS'code'
p6
S"response.write('<html> <head></head> <body> <h1>', escape=False)\nresponse.write(message)\nresponse.write('</h1> </body> </html>\\r\\n', escape=False)"
p7
sS'snapshot'
p8
(dp9
S'exception'
p10
(dp11
S'__hash__'
p12
S"<method-wrapper '__hash__' of exceptions.NameError object>"
p13
sS'__setattr__'
p14
S"<method-wrapper '__setattr__' of exceptions.NameError object>"
p15
sS'__reduce_ex__'
p16
S'<built-in method __reduce_ex__ of exceptions.NameError object>'
p17
sS'__getslice__'
p18
S"<method-wrapper '__getslice__' of exceptions.NameError object>"
p19
sS'__getitem__'
p20
S"<method-wrapper '__getitem__' of exceptions.NameError object>"
p21
sS'__setstate__'
p22
S'<built-in method __setstate__ of exceptions.NameError object>'
p23
sS'__reduce__'
p24
S'<built-in method __reduce__ of exceptions.NameError object>'
p25
sS'__str__'
p26
S"<method-wrapper '__str__' of exceptions.NameError object>"
p27
sS'__format__'
p28
S'<built-in method __format__ of exceptions.NameError object>'
p29
sS'__getattribute__'
p30
S"<method-wrapper '__getattribute__' of exceptions.NameError object>"
p31
sS'__class__'
p32
S"<type 'exceptions.NameError'>"
p33
sS'__unicode__'
p34
S'<built-in method __unicode__ of exceptions.NameError object>'
p35
sS'__delattr__'
p36
S"<method-wrapper '__delattr__' of exceptions.NameError object>"
p37
sS'__subclasshook__'
p38
S'<built-in method __subclasshook__ of type object>'
p39
sS'__repr__'
p40
S"<method-wrapper '__repr__' of exceptions.NameError object>"
p41
sS'args'
p42
S'("name \'message\' is not defined",)'
p43
sS'__dict__'
p44
S'{}'
p45
sS'__sizeof__'
p46
S'<built-in method __sizeof__ of exceptions.NameError object>'
p47
sS'__doc__'
p48
S"'Name not found globally.'"
p49
sS'__init__'
p50
S"<method-wrapper '__init__' of exceptions.NameError object>"
p51
sS'__new__'
p52
S'<built-in method __new__ of type object>'
p53
ssS'evalue'
p54
S"name 'message' is not defined"
p55
sS'request'
p56
cgluon.html
XML_unpickle
p57
(S's\xf2\\\x00\x00<div><table><tr><td style="font-weight:bold;vertical-align:top;">ajax</td><td style="vertical-align:top;">:</td><td><div>False</div></td></tr><tr><td style="font-weight:bold;vertical-align:top;">application</td><td style="vertical-align:top;">:</td><td><div>taratorka</div></td></tr><tr><td style="font-weight:bold;vertical-align:top;">args</td><td style="vertical-align:top;">:</td><td><div><table></table></div></td></tr><tr><td style="font-weight:bold;vertical-align:top;">cid</td><td style="vertical-align:top;">:</td><td><div>None</div></td></tr><tr><td style="font-weight:bold;vertical-align:top;">client</td><td style="vertical-align:top;">:</td><td><div>127.0.0.1</div></td></tr><tr><td style="font-weight:bold;vertical-align:top;">controller</td><td style="vertical-align:top;">:</td><td><div>default</div></td></tr><tr><td style="font-weight:bold;vertical-align:top;">cookies</td><td style="vertical-align:top;">:</td><td><div><table><tr><td style="font-weight:bold;vertical-align:top;">session_id_admin</td><td style="vertical-align:top;">:</td><td><div>127.0.0.1-d2c4b4f1-fdcd-4918-b4b2-67a65b49ea2c<table><tr><td style="font-weight:bold;vertical-align:top;">comment</td><td style="vertical-align:top;">:</td><td><div></div></td></tr><tr><td style="font-weight:bold;vertical-align:top;">domain</td><td style="vertical-align:top;">:</td><td><div></div></td></tr><tr><td style="font-weight:bold;vertical-align:top;">expires</td><td style="vertical-align:top;">:</td><td><div></div></td></tr><tr><td style="font-weight:bold;vertical-align:top;">httponly</td><td style="vertical-align:top;">:</td><td><div></div></td></tr><tr><td style="font-weight:bold;vertical-align:top;">max-age</td><td style="vertical-align:top;">:</td><td><div></div></td></tr><tr><td style="font-weight:bold;vertical-align:top;">path</td><td style="vertical-align:top;">:</td><td><div></div></td></tr><tr><td style="font-weight:bold;vertical-align:top;">secure</td><td style="vertical-align:top;">:</td><td><div></div></td></tr><tr><td style="font-weight:bold;vertical-align:top;">version</td><td style="vertical-align:top;">:</td><td><div></div></td></tr></table></div></td></tr><tr><td style="font-weight:bold;vertical-align:top;">session_id_taratorka</td><td style="vertical-align:top;">:</td><td><div>127.0.0.1-8708c3b2-a5dc-4ff0-8dfe-56451f09681f<table><tr><td style="font-weight:bold;vertical-align:top;">comment</td><td style="vertical-align:top;">:</td><td><div></div></td></tr><tr><td style="font-weight:bold;vertical-align:top;">domain</td><td style="vertical-align:top;">:</td><td><div></div></td></tr><tr><td style="font-weight:bold;vertical-align:top;">expires</td><td style="vertical-align:top;">:</td><td><div></div></td></tr><tr><td style="font-weight:bold;vertical-align:top;">httponly</td><td style="vertical-align:top;">:</td><td><div></div></td></tr><tr><td style="font-weight:bold;vertical-align:top;">max-age</td><td style="vertical-align:top;">:</td><td><div></div></td></tr><tr><td style="font-weight:bold;vertical-align:top;">path</td><td style="vertical-align:top;">:</td><td><div></div></td></tr><tr><td style="font-weight:bold;vertical-align:top;">secure</td><td style="vertical-align:top;">:</td><td><div></div></td></tr><tr><td style="font-weight:bold;vertical-align:top;">version</td><td style="vertical-align:top;">:</td><td><div></div></td></tr></table></div></td></tr><tr><td style="font-weight:bold;vertical-align:top;">session_id_welcome</td><td style="vertical-align:top;">:</td><td><div>127.0.0.1-d78162b0-f665-4626-a364-90bd67a9f78c<table><tr><td style="font-weight:bold;vertical-align:top;">comment</td><td style="vertical-align:top;">:</td><td><div></div></td></tr><tr><td style="font-weight:bold;vertical-align:top;">domain</td><td style="vertical-align:top;">:</td><td><div></div></td></tr><tr><td style="font-weight:bold;vertical-align:top;">expires</td><td style="vertical-align:top;">:</td><td><div></div></td></tr><tr><td style="font-weight:bold;vertical-align:top;">httponly</td><td style="vertical-align:top;">:</td><td><div></div></td></tr><tr><td style="font-weight:bold;vertical-align:top;">max-age</td><td style="vertical-align:top;">:</td><td><div></div></td></tr><tr><td style="font-weight:bold;vertical-align:top;">path</td><td style="vertical-align:top;">:</td><td><div></div></td></tr><tr><td style="font-weight:bold;vertical-align:top;">secure</td><td style="vertical-align:top;">:</td><td><div></div></td></tr><tr><td style="font-weight:bold;vertical-align:top;">version</td><td style="vertical-align:top;">:</td><td><div></div></td></tr></table></div></td></tr></table></div></td></tr><tr><td style="font-weight:bold;vertical-align:top;">env</td><td style="vertical-align:top;">:</td><td><div><table><tr><td style="font-weight:bold;vertical-align:top;">HTTP_ACCEPT</td><td style="vertical-align:top;">:</td><td><div>text/html,application/xhtml+xml,application/xml;q=0.9,image/webp,*/*;q=0.8</div></td></tr><tr><td style="font-weight:bold;vertical-align:top;">HTTP_ACCEPT_ENCODING</td><td style="vertical-align:top;">:</td><td><div>gzip,deflate,sdch</div></td></tr><tr><td style="font-weight:bold;vertical-align:top;">HTTP_ACCEPT_LANGUAGE</td><td style="vertical-align:top;">:</td><td><div>ru-RU,ru;q=0.8,en-US;q=0.6,en;q=0.4</div></td></tr><tr><td style="font-weight:bold;vertical-align:top;">HTTP_CONNECTION</td><td style="vertical-align:top;">:</td><td><div>keep-alive</div></td></tr><tr><td style="font-weight:bold;vertical-align:top;">HTTP_COOKIE</td><td style="vertical-align:top;">:</td><td><div>session_id_welcome=127.0.0.1-d78162b0-f665-4626-a364-90bd67a9f78c; session_id_taratorka=127.0.0.1-8708c3b2-a5dc-4ff0-8dfe-56451f09681f; session_id_admin=127.0.0.1-d2c4b4f1-fdcd-4918-b4b2-67a65b49ea2c</div></td></tr><tr><td style="font-weight:bold;vertical-align:top;">HTTP_HOST</td><td style="vertical-align:top;">:</td><td><div>127.0.0.1:9999</div></td></tr><tr><td style="font-weight:bold;vertical-align:top;">HTTP_USER_AGENT</td><td style="vertical-align:top;">:</td><td><div>Mozilla/5.0 (Windows NT 6.1) AppleWebKit/537.36 (KHTML, like Gecko) Chrome/36.0.1985.125 Safari/537.36</div></td></tr><tr><td style="font-weight:bold;vertical-align:top;">PATH_INFO</td><td style="vertical-align:top;">:</td><td><div>/taratorka</div></td></tr><tr><td style="font-weight:bold;vertical-align:top;">QUERY_STRING</td><td style="vertical-align:top;">:</td><td><div></div></td></tr><tr><td style="font-weight:bold;vertical-align:top;">REMOTE_ADDR</td><td style="vertical-align:top;">:</td><td><div>127.0.0.1</div></td></tr><tr><td style="font-weight:bold;vertical-align:top;">REMOTE_PORT</td><td style="vertical-align:top;">:</td><td><div>57152</div></td></tr><tr><td style="font-weight:bold;vertical-align:top;">REQUEST_METHOD</td><td style="vertical-align:top;">:</td><td><div>GET</div></td></tr><tr><td style="font-weight:bold;vertical-align:top;">SCRIPT_NAME</td><td style="vertical-align:top;">:</td><td><div></div></td></tr><tr><td style="font-weight:bold;vertical-align:top;">SERVER_NAME</td><td style="vertical-align:top;">:</td><td><div>Shadow</div></td></tr><tr><td style="font-weight:bold;vertical-align:top;">SERVER_PORT</td><td style="vertical-align:top;">:</td><td><div>9999</div></td></tr><tr><td style="font-weight:bold;vertical-align:top;">SERVER_PROTOCOL</td><td style="vertical-align:top;">:</td><td><div>HTTP/1.1</div></td></tr><tr><td style="font-weight:bold;vertical-align:top;">SERVER_SOFTWARE</td><td style="vertical-align:top;">:</td><td><div>Rocket 1.2.6</div></td></tr><tr><td style="font-weight:bold;vertical-align:top;">app_folders</td><td style="vertical-align:top;">:</td><td><div>set([&#x27;C:\\\\Python27\\\\web2py\\\\applications\\\\admin\\\\&#x27;, &#x27;C:\\\\Python27\\\\web2py\\\\applications\\\\welcome\\\\&#x27;, &#x27;C:\\\\Python27\\\\web2py\\\\applications\\\\taratorka\\\\&#x27;])</div></td></tr><tr><td style="font-weight:bold;vertical-align:top;">applications_parent</td><td style="vertical-align:top;">:</td><td><div>C:\\Python27\\web2py</div></td></tr><tr><td style="font-weight:bold;vertical-align:top;">cmd_args</td><td style="vertical-align:top;">:</td><td><div><table></table></div></td></tr><tr><td style="font-weight:bold;vertical-align:top;">cmd_options</td><td style="vertical-align:top;">:</td><td><div>&lt;Values at 0x2718d78: {&#x27;verbose&#x27;: False, &#x27;ip&#x27;: &#x27;127.0.0.1&#x27;, &#x27;debuglevel&#x27;: 30, &#x27;with_scheduler&#x27;: False, &#x27;ips&#x27;: [&#x27;192.168.154.1&#x27;, &#x27;fe80::29af:2dda:87a7:48d1%15&#x27;, &#x27;169.254.72.209&#x27;, &#x27;fe80::c587:ac04:9d90:4e16%21&#x27;, &#x27;192.168.0.3&#x27;, &#x27;192.168.208.1&#x27;, &#x27;fe80::e468:fdf:e78e:a8c4%22&#x27;, &#x27;fe80::a82c:e49b:142f:e19b%13&#x27;], &#x27;shutdown_timeout&#x27;: 5, &#x27;taskbar&#x27;: False, &#x27;with_coverage&#x27;: False, &#x27;port&#x27;: 8000, &#x27;maxthreads&#x27;: None, &#x27;softcron&#x27;: False, &#x27;server_name&#x27;: &#x27;Shadow&#x27;, &#x27;bpython&#x27;: False, &#x27;nogui&#x27;: False, &#x27;pid_filename&#x27;: &#x27;httpserver.pid&#x27;, &#x27;extcron&#x27;: False, &#x27;runcron&#x27;: False, &#x27;run_system_tests&#x27;: False, &#x27;test&#x27;: None, &#x27;folder&#x27;: &#x27;C:\\\\Python27\\\\web2py&#x27;, &#x27;config&#x27;: &#x27;&#x27;, &#x27;minthreads&#x27;: None, &#x27;shell&#x27;: None, &#x27;run&#x27;: &#x27;&#x27;, &#x27;log_filename&#x27;: &#x27;httpserver.log&#x27;, &#x27;profiler_dir&#x27;: None, &#x27;args&#x27;: [&#x27;&#x27;], &#x27;socket_timeout&#x27;: 5, &#x27;ssl_ca_certificate&#x27;: None, &#x27;scheduler&#x27;: None, &#x27;interfaces&#x27;: None, &#x27;ssl_private_key&#x27;: &#x27;&#x27;, &#x27;scheduler_groups&#x27;: None, &#x27;password&#x27;: &#x27;&lt;ask&gt;&#x27;, &#x27;request_queue_size&#x27;: 5, &#x27;ssl_certificate&#x27;: &#x27;&#x27;, &#x27;cronjob&#x27;: False, &#x27;numthreads&#x27;: None, &#x27;quiet&#x27;: False, &#x27;import_models&#x27;: False, &#x27;timeout&#x27;: 10, &#x27;plain&#x27;: False, &#x27;nobanner&#x27;: False}&gt;</div></td></tr><tr><td style="font-weight:bold;vertical-align:top;">db_sessions</td><td style="vertical-align:top;">:</td><td><div>set([])</div></td></tr><tr><td style="font-weight:bold;vertical-align:top;">debugging</td><td style="vertical-align:top;">:</td><td><div>True</div></td></tr><tr><td style="font-weight:bold;vertical-align:top;">gluon_parent</td><td style="vertical-align:top;">:</td><td><div>C:\\Python27\\web2py</div></td></tr><tr><td style="font-weight:bold;vertical-align:top;">http_accept</td><td style="vertical-align:top;">:</td><td><div>text/html,application/xhtml+xml,application/xml;q=0.9,image/webp,*/*;q=0.8</div></td></tr><tr><td style="font-weight:bold;vertical-align:top;">http_accept_encoding</td><td style="vertical-align:top;">:</td><td><div>gzip,deflate,sdch</div></td></tr><tr><td style="font-weight:bold;vertical-align:top;">http_accept_language</td><td style="vertical-align:top;">:</td><td><div>ru-RU,ru;q=0.8,en-US;q=0.6,en;q=0.4</div></td></tr><tr><td style="font-weight:bold;vertical-align:top;">http_connection</td><td style="vertical-align:top;">:</td><td><div>keep-alive</div></td></tr><tr><td style="font-weight:bold;vertical-align:top;">http_cookie</td><td style="vertical-align:top;">:</td><td><div>session_id_welcome=127.0.0.1-d78162b0-f665-4626-a364-90bd67a9f78c; session_id_taratorka=127.0.0.1-8708c3b2-a5dc-4ff0-8dfe-56451f09681f; session_id_admin=127.0.0.1-d2c4b4f1-fdcd-4918-b4b2-67a65b49ea2c</div></td></tr><tr><td style="font-weight:bold;vertical-align:top;">http_host</td><td style="vertical-align:top;">:</td><td><div>127.0.0.1:9999</div></td></tr><tr><td style="font-weight:bold;vertical-align:top;">http_user_agent</td><td style="vertical-align:top;">:</td><td><div>Mozilla/5.0 (Windows NT 6.1) AppleWebKit/537.36 (KHTML, like Gecko) Chrome/36.0.1985.125 Safari/537.36</div></td></tr><tr><td style="font-weight:bold;vertical-align:top;">is_jython</td><td style="vertical-align:top;">:</td><td><div>False</div></td></tr><tr><td style="font-weight:bold;vertical-align:top;">is_pypy</td><td style="vertical-align:top;">:</td><td><div>False</div></td></tr><tr><td style="font-weight:bold;vertical-align:top;">is_source</td><td style="vertical-align:top;">:</td><td><div>False</div></td></tr><tr><td style="font-weight:bold;vertical-align:top;">local_hosts</td><td style="vertical-align:top;">:</td><td><div><table><tr><td><div>192.168.154.1</div></td></tr><tr><td><div>fe80::29af:2dda:87a7:48d1%15</div></td></tr><tr><td><div>::1</div></td></tr><tr><td><div>::ffff:127.0.0.1</div></td></tr><tr><td><div>fe80::c587:ac04:9d90:4e16%21</div></td></tr><tr><td><div>192.168.0.3</div></td></tr><tr><td><div>192.168.208.1</div></td></tr><tr><td><div>169.254.72.209</div></td></tr><tr><td><div>fe80::e468:fdf:e78e:a8c4%22</div></td></tr><tr><td><div>Shadow</div></td></tr><tr><td><div>fe80::a82c:e49b:142f:e19b%13</div></td></tr><tr><td><div>127.0.0.1</div></td></tr></table></div></td></tr><tr><td style="font-weight:bold;vertical-align:top;">path_info</td><td style="vertical-align:top;">:</td><td><div>/taratorka</div></td></tr><tr><td style="font-weight:bold;vertical-align:top;">query_string</td><td style="vertical-align:top;">:</td><td><div></div></td></tr><tr><td style="font-weight:bold;vertical-align:top;">remote_addr</td><td style="vertical-align:top;">:</td><td><div>127.0.0.1</div></td></tr><tr><td style="font-weight:bold;vertical-align:top;">remote_port</td><td style="vertical-align:top;">:</td><td><div>57152</div></td></tr><tr><td style="font-weight:bold;vertical-align:top;">request_method</td><td style="vertical-align:top;">:</td><td><div>GET</div></td></tr><tr><td style="font-weight:bold;vertical-align:top;">request_uri</td><td style="vertical-align:top;">:</td><td><div>/taratorka</div></td></tr><tr><td style="font-weight:bold;vertical-align:top;">script_name</td><td style="vertical-align:top;">:</td><td><div></div></td></tr><tr><td style="font-weight:bold;vertical-align:top;">server_name</td><td style="vertical-align:top;">:</td><td><div>Shadow</div></td></tr><tr><td style="font-weight:bold;vertical-align:top;">server_port</td><td style="vertical-align:top;">:</td><td><div>9999</div></td></tr><tr><td style="font-weight:bold;vertical-align:top;">server_protocol</td><td style="vertical-align:top;">:</td><td><div>HTTP/1.1</div></td></tr><tr><td style="font-weight:bold;vertical-align:top;">server_software</td><td style="vertical-align:top;">:</td><td><div>Rocket 1.2.6</div></td></tr><tr><td style="font-weight:bold;vertical-align:top;">web2py_path</td><td style="vertical-align:top;">:</td><td><div>C:\\Python27\\web2py</div></td></tr><tr><td style="font-weight:bold;vertical-align:top;">web2py_version</td><td style="vertical-align:top;">:</td><td><div>2.9.5-stable+timestamp.2014.03.20.22.57.13</div></td></tr><tr><td style="font-weight:bold;vertical-align:top;">wsgi.errors</td><td style="vertical-align:top;">:</td><td><div>&lt;open file &#x27;&lt;stderr&gt;&#x27;, mode &#x27;w&#x27; at 0x011A60D0&gt;</div></td></tr><tr><td style="font-weight:bold;vertical-align:top;">wsgi.file_wrapper</td><td style="vertical-align:top;">:</td><td><div>&lt;class wsgiref.util.FileWrapper at 0x01870E68&gt;</div></td></tr><tr><td style="font-weight:bold;vertical-align:top;">wsgi.input</td><td style="vertical-align:top;">:</td><td><div>&lt;socket._fileobject object at 0x060FA270&gt;</div></td></tr><tr><td style="font-weight:bold;vertical-align:top;">wsgi.multiprocess</td><td style="vertical-align:top;">:</td><td><div>False</div></td></tr><tr><td style="font-weight:bold;vertical-align:top;">wsgi.multithread</td><td style="vertical-align:top;">:</td><td><div>True</div></td></tr><tr><td style="font-weight:bold;vertical-align:top;">wsgi.run_once</td><td style="vertical-align:top;">:</td><td><div>False</div></td></tr><tr><td style="font-weight:bold;vertical-align:top;">wsgi.url_scheme</td><td style="vertical-align:top;">:</td><td><div>http</div></td></tr><tr><td style="font-weight:bold;vertical-align:top;">wsgi.version</td><td style="vertical-align:top;">:</td><td><div><table><tr><td><div>1</div></td></tr><tr><td><div>0</div></td></tr></table></div></td></tr><tr><td style="font-weight:bold;vertical-align:top;">wsgi_errors</td><td style="vertical-align:top;">:</td><td><div>&lt;open file &#x27;&lt;stderr&gt;&#x27;, mode &#x27;w&#x27; at 0x011A60D0&gt;</div></td></tr><tr><td style="font-weight:bold;vertical-align:top;">wsgi_file_wrapper</td><td style="vertical-align:top;">:</td><td><div>&lt;class wsgiref.util.FileWrapper at 0x01870E68&gt;</div></td></tr><tr><td style="font-weight:bold;vertical-align:top;">wsgi_input</td><td style="vertical-align:top;">:</td><td><div>&lt;socket._fileobject object at 0x060FA270&gt;</div></td></tr><tr><td style="font-weight:bold;vertical-align:top;">wsgi_multiprocess</td><td style="vertical-align:top;">:</td><td><div>False</div></td></tr><tr><td style="font-weight:bold;vertical-align:top;">wsgi_multithread</td><td style="vertical-align:top;">:</td><td><div>True</div></td></tr><tr><td style="font-weight:bold;vertical-align:top;">wsgi_run_once</td><td style="vertical-align:top;">:</td><td><div>False</div></td></tr><tr><td style="font-weight:bold;vertical-align:top;">wsgi_url_scheme</td><td style="vertical-align:top;">:</td><td><div>http</div></td></tr><tr><td style="font-weight:bold;vertical-align:top;">wsgi_version</td><td style="vertical-align:top;">:</td><td><div><table><tr><td><div>1</div></td></tr><tr><td><div>0</div></td></tr></table></div></td></tr></table></div></td></tr><tr><td style="font-weight:bold;vertical-align:top;">extension</td><td style="vertical-align:top;">:</td><td><div>html</div></td></tr><tr><td style="font-weight:bold;vertical-align:top;">folder</td><td style="vertical-align:top;">:</td><td><div>C:\\Python27\\web2py\\applications\\taratorka\\</div></td></tr><tr><td style="font-weight:bold;vertical-align:top;">function</td><td style="vertical-align:top;">:</td><td><div>index</div></td></tr><tr><td style="font-weight:bold;vertical-align:top;">global_settings</td><td style="vertical-align:top;">:</td><td><div><table><tr><td style="font-weight:bold;vertical-align:top;">app_folders</td><td style="vertical-align:top;">:</td><td><div>set([&#x27;C:\\\\Python27\\\\web2py\\\\applications\\\\admin\\\\&#x27;, &#x27;C:\\\\Python27\\\\web2py\\\\applications\\\\welcome\\\\&#x27;, &#x27;C:\\\\Python27\\\\web2py\\\\applications\\\\taratorka\\\\&#x27;])</div></td></tr><tr><td style="font-weight:bold;vertical-align:top;">applications_parent</td><td style="vertical-align:top;">:</td><td><div>C:\\Python27\\web2py</div></td></tr><tr><td style="font-weight:bold;vertical-align:top;">cmd_args</td><td style="vertical-align:top;">:</td><td><div><table></table></div></td></tr><tr><td style="font-weight:bold;vertical-align:top;">cmd_options</td><td style="vertical-align:top;">:</td><td><div>&lt;Values at 0x2718d78: {&#x27;verbose&#x27;: False, &#x27;ip&#x27;: &#x27;127.0.0.1&#x27;, &#x27;debuglevel&#x27;: 30, &#x27;with_scheduler&#x27;: False, &#x27;ips&#x27;: [&#x27;192.168.154.1&#x27;, &#x27;fe80::29af:2dda:87a7:48d1%15&#x27;, &#x27;169.254.72.209&#x27;, &#x27;fe80::c587:ac04:9d90:4e16%21&#x27;, &#x27;192.168.0.3&#x27;, &#x27;192.168.208.1&#x27;, &#x27;fe80::e468:fdf:e78e:a8c4%22&#x27;, &#x27;fe80::a82c:e49b:142f:e19b%13&#x27;], &#x27;shutdown_timeout&#x27;: 5, &#x27;taskbar&#x27;: False, &#x27;with_coverage&#x27;: False, &#x27;port&#x27;: 8000, &#x27;maxthreads&#x27;: None, &#x27;softcron&#x27;: False, &#x27;server_name&#x27;: &#x27;Shadow&#x27;, &#x27;bpython&#x27;: False, &#x27;nogui&#x27;: False, &#x27;pid_filename&#x27;: &#x27;httpserver.pid&#x27;, &#x27;extcron&#x27;: False, &#x27;runcron&#x27;: False, &#x27;run_system_tests&#x27;: False, &#x27;test&#x27;: None, &#x27;folder&#x27;: &#x27;C:\\\\Python27\\\\web2py&#x27;, &#x27;config&#x27;: &#x27;&#x27;, &#x27;minthreads&#x27;: None, &#x27;shell&#x27;: None, &#x27;run&#x27;: &#x27;&#x27;, &#x27;log_filename&#x27;: &#x27;httpserver.log&#x27;, &#x27;profiler_dir&#x27;: None, &#x27;args&#x27;: [&#x27;&#x27;], &#x27;socket_timeout&#x27;: 5, &#x27;ssl_ca_certificate&#x27;: None, &#x27;scheduler&#x27;: None, &#x27;interfaces&#x27;: None, &#x27;ssl_private_key&#x27;: &#x27;&#x27;, &#x27;scheduler_groups&#x27;: None, &#x27;password&#x27;: &#x27;&lt;ask&gt;&#x27;, &#x27;request_queue_size&#x27;: 5, &#x27;ssl_certificate&#x27;: &#x27;&#x27;, &#x27;cronjob&#x27;: False, &#x27;numthreads&#x27;: None, &#x27;quiet&#x27;: False, &#x27;import_models&#x27;: False, &#x27;timeout&#x27;: 10, &#x27;plain&#x27;: False, &#x27;nobanner&#x27;: False}&gt;</div></td></tr><tr><td style="font-weight:bold;vertical-align:top;">db_sessions</td><td style="vertical-align:top;">:</td><td><div>set([])</div></td></tr><tr><td style="font-weight:bold;vertical-align:top;">debugging</td><td style="vertical-align:top;">:</td><td><div>True</div></td></tr><tr><td style="font-weight:bold;vertical-align:top;">gluon_parent</td><td style="vertical-align:top;">:</td><td><div>C:\\Python27\\web2py</div></td></tr><tr><td style="font-weight:bold;vertical-align:top;">is_jython</td><td style="vertical-align:top;">:</td><td><div>False</div></td></tr><tr><td style="font-weight:bold;vertical-align:top;">is_pypy</td><td style="vertical-align:top;">:</td><td><div>False</div></td></tr><tr><td style="font-weight:bold;vertical-align:top;">is_source</td><td style="vertical-align:top;">:</td><td><div>False</div></td></tr><tr><td style="font-weight:bold;vertical-align:top;">local_hosts</td><td style="vertical-align:top;">:</td><td><div><table><tr><td><div>192.168.154.1</div></td></tr><tr><td><div>fe80::29af:2dda:87a7:48d1%15</div></td></tr><tr><td><div>::1</div></td></tr><tr><td><div>::ffff:127.0.0.1</div></td></tr><tr><td><div>fe80::c587:ac04:9d90:4e16%21</div></td></tr><tr><td><div>192.168.0.3</div></td></tr><tr><td><div>192.168.208.1</div></td></tr><tr><td><div>169.254.72.209</div></td></tr><tr><td><div>fe80::e468:fdf:e78e:a8c4%22</div></td></tr><tr><td><div>Shadow</div></td></tr><tr><td><div>fe80::a82c:e49b:142f:e19b%13</div></td></tr><tr><td><div>127.0.0.1</div></td></tr></table></div></td></tr><tr><td style="font-weight:bold;vertical-align:top;">web2py_version</td><td style="vertical-align:top;">:</td><td><div>2.9.5-stable+timestamp.2014.03.20.22.57.13</div></td></tr></table></div></td></tr><tr><td style="font-weight:bold;vertical-align:top;">is_https</td><td style="vertical-align:top;">:</td><td><div>False</div></td></tr><tr><td style="font-weight:bold;vertical-align:top;">is_local</td><td style="vertical-align:top;">:</td><td><div>True</div></td></tr><tr><td style="font-weight:bold;vertical-align:top;">is_restful</td><td style="vertical-align:top;">:</td><td><div>False</div></td></tr><tr><td style="font-weight:bold;vertical-align:top;">now</td><td style="vertical-align:top;">:</td><td><div>datetime.datetime(2014, 8, 14, 23, 44, 41, 849000)</div></td></tr><tr><td style="font-weight:bold;vertical-align:top;">raw_args</td><td style="vertical-align:top;">:</td><td><div></div></td></tr><tr><td style="font-weight:bold;vertical-align:top;">raw_extension</td><td style="vertical-align:top;">:</td><td><div>None</div></td></tr><tr><td style="font-weight:bold;vertical-align:top;">url</td><td style="vertical-align:top;">:</td><td><div>/taratorka</div></td></tr><tr><td style="font-weight:bold;vertical-align:top;">utcnow</td><td style="vertical-align:top;">:</td><td><div>datetime.datetime(2014, 8, 14, 20, 44, 41, 849000)</div></td></tr><tr><td style="font-weight:bold;vertical-align:top;">uuid</td><td style="vertical-align:top;">:</td><td><div>taratorka/127.0.0.1.2014-08-14.23-44-41.ccd01d8e-46b5-49f0-b167-8cfe320b8e69</div></td></tr><tr><td style="font-weight:bold;vertical-align:top;">wsgi</td><td style="vertical-align:top;">:</td><td><div>&lt;gluon.main.LazyWSGI object at 0x06C6BE70&gt;</div></td></tr></table></div>'
tRp58
sS'frames'
p59
(lp60
(dp61
S'file'
p62
S'C:\\home\\mdipierro\\make_web2py\\web2py\\gluon\\restricted.py'
p63
sS'dump'
p64
(dp65
sS'lnum'
p66
I220
sS'lines'
p67
(dp68
sS'call'
p69
S'(code=r"response.write(\'<html> <head></head> <body> <h1>....write(\'</h1> </body> </html>\\r\\n\', escape=False)", environment={\'A\': <class \'gluon.html.A\'>, \'ANY_OF\': <class \'gluon.validators.ANY_OF\'>, \'Auth\': <class \'gluon.tools.Auth\'>, \'B\': <class \'gluon.html.B\'>, \'BEAUTIFY\': <class \'gluon.html.BEAUTIFY\'>, \'BODY\': <class \'gluon.html.BODY\'>, \'BR\': <class \'gluon.html.BR\'>, \'BUTTON\': <class \'gluon.html.BUTTON\'>, \'CAT\': <class \'gluon.html.CAT\'>, \'CENTER\': <class \'gluon.html.CENTER\'>, ...}, layer=r\'C:\\Python27\\web2py\\applications\\taratorka\\views\\default/index.html\')'
p70
sS'func'
p71
S'restricted'
p72
sa(dp73
g62
S'C:\\Python27\\web2py\\applications\\taratorka\\views\\default\\index.html'
p74
sg64
(dp75
sg66
I2
sg67
(dp76
I1
S"response.write('<html> <head></head> <body> <h1>', escape=False)"
p77
sI2
S'response.write(message)'
p78
sI3
S"response.write('</h1> </body> </html>\\r\\n', escape=False)"
p79
ssg69
S'()'
p80
sg71
S'<module>'
p81
sasS'pyver'
p82
S'Python 2.7.6: C:\\Python27\\web2py\\web2py.exe (prefix: C:\\Python27)'
p83
sS'session'
p84
g57
(S'sl\x08\x00\x00<div><table><tr><td style="font-weight:bold;vertical-align:top;">auth</td><td style="vertical-align:top;">:</td><td><div><table><tr><td style="font-weight:bold;vertical-align:top;">expiration</td><td style="vertical-align:top;">:</td><td><div>3600</div></td></tr><tr><td style="font-weight:bold;vertical-align:top;">hmac_key</td><td style="vertical-align:top;">:</td><td><div>a7fbfb42-5025-45a3-b98a-5eee1e0cebe6</div></td></tr><tr><td style="font-weight:bold;vertical-align:top;">last_visit</td><td style="vertical-align:top;">:</td><td><div>datetime.datetime(2014, 8, 14, 23, 44, 41, 849000)</div></td></tr><tr><td style="font-weight:bold;vertical-align:top;">user</td><td style="vertical-align:top;">:</td><td><div><table><tr><td style="font-weight:bold;vertical-align:top;">email</td><td style="vertical-align:top;">:</td><td><div>slamgp@yandex.ru</div></td></tr><tr><td style="font-weight:bold;vertical-align:top;">first_name</td><td style="vertical-align:top;">:</td><td><div>slamgp</div></td></tr><tr><td style="font-weight:bold;vertical-align:top;">id</td><td style="vertical-align:top;">:</td><td><div>11L</div></td></tr><tr><td style="font-weight:bold;vertical-align:top;">last_name</td><td style="vertical-align:top;">:</td><td><div>\xd0\x9f\xd0\xb0\xd0\xbd\xd1\x87\xd0\xb5\xd0\xbd\xd0\xba\xd0\xbe</div></td></tr><tr><td style="font-weight:bold;vertical-align:top;">registration_id</td><td style="vertical-align:top;">:</td><td><div></div></td></tr><tr><td style="font-weight:bold;vertical-align:top;">registration_key</td><td style="vertical-align:top;">:</td><td><div></div></td></tr><tr><td style="font-weight:bold;vertical-align:top;">reset_password_key</td><td style="vertical-align:top;">:</td><td><div></div></td></tr></table></div></td></tr><tr><td style="font-weight:bold;vertical-align:top;">user_groups</td><td style="vertical-align:top;">:</td><td><div><table><tr><td style="font-weight:bold;vertical-align:top;">1</td><td style="vertical-align:top;">:</td><td><div>user_11</div></td></tr></table></div></td></tr></table></div></td></tr><tr><td style="font-weight:bold;vertical-align:top;">flash</td><td style="vertical-align:top;">:</td><td><div>None</div></td></tr></table></div>'
tRp85
sS'etype'
p86
S"<type 'exceptions.NameError'>"
p87
sS'date'
p88
S'Thu Aug 14 23:44:42 2014'
p89
sS'response'
p90
g57
(S's\xe6\x1c\x00\x00<div><table><tr><td style="font-weight:bold;vertical-align:top;">body</td><td style="vertical-align:top;">:</td><td><div>&lt;cStringIO.StringO object at 0x075D69E0&gt;</div></td></tr><tr><td style="font-weight:bold;vertical-align:top;">cookies</td><td style="vertical-align:top;">:</td><td><div><table><tr><td style="font-weight:bold;vertical-align:top;">session_id_taratorka</td><td style="vertical-align:top;">:</td><td><div>127.0.0.1-8708c3b2-a5dc-4ff0-8dfe-56451f09681f<table><tr><td style="font-weight:bold;vertical-align:top;">comment</td><td style="vertical-align:top;">:</td><td><div></div></td></tr><tr><td style="font-weight:bold;vertical-align:top;">domain</td><td style="vertical-align:top;">:</td><td><div></div></td></tr><tr><td style="font-weight:bold;vertical-align:top;">expires</td><td style="vertical-align:top;">:</td><td><div></div></td></tr><tr><td style="font-weight:bold;vertical-align:top;">httponly</td><td style="vertical-align:top;">:</td><td><div></div></td></tr><tr><td style="font-weight:bold;vertical-align:top;">max-age</td><td style="vertical-align:top;">:</td><td><div></div></td></tr><tr><td style="font-weight:bold;vertical-align:top;">path</td><td style="vertical-align:top;">:</td><td><div>/</div></td></tr><tr><td style="font-weight:bold;vertical-align:top;">secure</td><td style="vertical-align:top;">:</td><td><div></div></td></tr><tr><td style="font-weight:bold;vertical-align:top;">version</td><td style="vertical-align:top;">:</td><td><div></div></td></tr></table></div></td></tr></table></div></td></tr><tr><td style="font-weight:bold;vertical-align:top;">delimiters</td><td style="vertical-align:top;">:</td><td><div><table><tr><td><div>{{</div></td></tr><tr><td><div>}}</div></td></tr></table></div></td></tr><tr><td style="font-weight:bold;vertical-align:top;">files</td><td style="vertical-align:top;">:</td><td><div><table></table></div></td></tr><tr><td style="font-weight:bold;vertical-align:top;">flash</td><td style="vertical-align:top;">:</td><td><div></div></td></tr><tr><td style="font-weight:bold;vertical-align:top;">generic_patterns</td><td style="vertical-align:top;">:</td><td><div><table><tr><td><div>*</div></td></tr></table></div></td></tr><tr><td style="font-weight:bold;vertical-align:top;">headers</td><td style="vertical-align:top;">:</td><td><div><table><tr><td style="font-weight:bold;vertical-align:top;">X-Powered-By</td><td style="vertical-align:top;">:</td><td><div>web2py</div></td></tr></table></div></td></tr><tr><td style="font-weight:bold;vertical-align:top;">menu</td><td style="vertical-align:top;">:</td><td><div><table><tr><td><div><table><tr><td><div>Index</div></td></tr><tr><td><div>True</div></td></tr><tr><td><div>/taratorka/default/index</div></td></tr><tr><td><div><table></table></div></td></tr></table></div></td></tr><tr><td><div><table><tr><td><div>Chat \xd0\xa1hannels</div></td></tr><tr><td><div>False</div></td></tr><tr><td><div>/taratorka/default/chat_channels_manage</div></td></tr><tr><td><div><table></table></div></td></tr></table></div></td></tr><tr><td><div><table><tr><td><div>Posts</div></td></tr><tr><td><div>False</div></td></tr><tr><td><div>/taratorka/default/posts_manage</div></td></tr><tr><td><div><table></table></div></td></tr></table></div></td></tr></table></div></td></tr><tr><td style="font-weight:bold;vertical-align:top;">meta</td><td style="vertical-align:top;">:</td><td><div><table><tr><td style="font-weight:bold;vertical-align:top;">author</td><td style="vertical-align:top;">:</td><td><div>Panchenko &lt;slamgp1987@gmail.com&gt;</div></td></tr><tr><td style="font-weight:bold;vertical-align:top;">description</td><td style="vertical-align:top;">:</td><td><div>Taratorka - Web Chat where you can discuss any topic. Meet interesting people, make new friends, and just relax talking to your favorite topics !!!</div></td></tr><tr><td style="font-weight:bold;vertical-align:top;">keywords</td><td style="vertical-align:top;">:</td><td><div>chat \xd1\x87\xd0\xb0\xd1\x82  \xd0\xbf\xd0\xbe\xd0\xbe\xd0\xb1\xd1\x89\xd0\xb0\xd1\x82\xd1\x8c\xd1\x81\xd1\x8f  \xd0\xbf\xd0\xbe\xd0\xb3\xd0\xbe\xd0\xb2\xd0\xbe\xd1\x80\xd0\xb8\xd1\x82\xd1\x8c  talk</div></td></tr></table></div></td></tr><tr><td style="font-weight:bold;vertical-align:top;">models_to_run</td><td style="vertical-align:top;">:</td><td><div><table><tr><td><div>^\\w+\\.py$</div></td></tr><tr><td><div>^default/\\w+\\.py$</div></td></tr><tr><td><div>^default/index/\\w+\\.py$</div></td></tr></table></div></td></tr><tr><td style="font-weight:bold;vertical-align:top;">postprocessing</td><td style="vertical-align:top;">:</td><td><div><table></table></div></td></tr><tr><td style="font-weight:bold;vertical-align:top;">session_client</td><td style="vertical-align:top;">:</td><td><div>127.0.0.1</div></td></tr><tr><td style="font-weight:bold;vertical-align:top;">session_cookie_compression_level</td><td style="vertical-align:top;">:</td><td><div>None</div></td></tr><tr><td style="font-weight:bold;vertical-align:top;">session_cookie_expires</td><td style="vertical-align:top;">:</td><td><div>None</div></td></tr><tr><td style="font-weight:bold;vertical-align:top;">session_cookie_key</td><td style="vertical-align:top;">:</td><td><div>None</div></td></tr><tr><td style="font-weight:bold;vertical-align:top;">session_data_name</td><td style="vertical-align:top;">:</td><td><div>session_data_taratorka</div></td></tr><tr><td style="font-weight:bold;vertical-align:top;">session_file</td><td style="vertical-align:top;">:</td><td><div>&lt;open file &#x27;C:\\\\Python27\\\\web2py\\\\applications\\\\taratorka\\\\sessions\\\\127.0.0.1-8708c3b2-a5dc-4ff0-8dfe-56451f09681f&#x27;, mode &#x27;rb+&#x27; at 0x06B4BDE0&gt;</div></td></tr><tr><td style="font-weight:bold;vertical-align:top;">session_filename</td><td style="vertical-align:top;">:</td><td><div>C:\\Python27\\web2py\\applications\\taratorka\\sessions\\127.0.0.1-8708c3b2-a5dc-4ff0-8dfe-56451f09681f</div></td></tr><tr><td style="font-weight:bold;vertical-align:top;">session_hash</td><td style="vertical-align:top;">:</td><td><div>cc94b15c71f953abb86a13053e80be77</div></td></tr><tr><td style="font-weight:bold;vertical-align:top;">session_id</td><td style="vertical-align:top;">:</td><td><div>127.0.0.1-8708c3b2-a5dc-4ff0-8dfe-56451f09681f</div></td></tr><tr><td style="font-weight:bold;vertical-align:top;">session_id_name</td><td style="vertical-align:top;">:</td><td><div>session_id_taratorka</div></td></tr><tr><td style="font-weight:bold;vertical-align:top;">session_locked</td><td style="vertical-align:top;">:</td><td><div>True</div></td></tr><tr><td style="font-weight:bold;vertical-align:top;">session_masterapp</td><td style="vertical-align:top;">:</td><td><div>taratorka</div></td></tr><tr><td style="font-weight:bold;vertical-align:top;">session_new</td><td style="vertical-align:top;">:</td><td><div>False</div></td></tr><tr><td style="font-weight:bold;vertical-align:top;">session_storage_type</td><td style="vertical-align:top;">:</td><td><div>file</div></td></tr><tr><td style="font-weight:bold;vertical-align:top;">status</td><td style="vertical-align:top;">:</td><td><div>200</div></td></tr><tr><td style="font-weight:bold;vertical-align:top;">subtitle</td><td style="vertical-align:top;">:</td><td><div></div></td></tr><tr><td style="font-weight:bold;vertical-align:top;">title</td><td style="vertical-align:top;">:</td><td><div>TARATORKA</div></td></tr><tr><td style="font-weight:bold;vertical-align:top;">view</td><td style="vertical-align:top;">:</td><td><div>default/index.html</div></td></tr></table></div>'
tRp91
sS'locals'
p92
(dp93
S'Service'
p94
S"<class 'gluon.tools.Service'>"
p95
sS'OBJECT'
p96
S"<class 'gluon.html.OBJECT'>"
p97
sS'SQLDB'
p98
S"<class 'gluon.dal.DAL'>"
p99
sg84
S"<Storage {'_formkey[register]': ['7291ef71-b6fb-...0f75e', '0d8d2de2-d99c-4b99-a4d6-0b75a08eb5db']}>"
p100
sS'LINK'
p101
S"<class 'gluon.html.LINK'>"
p102
sS'BR'
p103
S"<class 'gluon.html.BR'>"
p104
sS'local_import'
p105
S'<function <lambda>>'
p106
sS'OPTGROUP'
p107
S"<class 'gluon.html.OPTGROUP'>"
p108
sS'__package__'
p109
S'None'
p110
sS'PRE'
p111
S"<class 'gluon.html.PRE'>"
p112
sS'IS_INT_IN_RANGE'
p113
S"<class 'gluon.validators.IS_INT_IN_RANGE'>"
p114
sS'IS_LOWER'
p115
S"<class 'gluon.validators.IS_LOWER'>"
p116
sS'IS_STRONG'
p117
S"<class 'gluon.validators.IS_STRONG'>"
p118
sS'cache'
p119
S'<gluon.cache.Cache object>'
p120
sS'IS_IN_DB'
p121
S"<class 'gluon.validators.IS_IN_DB'>"
p122
sS'TAG'
p123
S'<gluon.html.__TAG__ object>'
p124
sS'SQLField'
p125
S"<class 'gluon.dal.Field'>"
p126
sS'mail'
p127
S'<gluon.tools.Mail object>'
p128
sS'BODY'
p129
S"<class 'gluon.html.BODY'>"
p130
sS'IS_DATE_IN_RANGE'
p131
S"<class 'gluon.validators.IS_DATE_IN_RANGE'>"
p132
sS'IFRAME'
p133
S"<class 'gluon.html.IFRAME'>"
p134
sS'URL'
p135
S'<function URL>'
p136
sS'__file__'
p137
S"r'C:\\Python27\\web2py\\applications\\taratorka\\views\\default/index.html'"
p138
sS'db'
p139
S'<DAL uri="sqlite://storage.sqlite">'
p140
sS'auth'
p141
S'<gluon.tools.Auth object>'
p142
sS'P'
S"<class 'gluon.html.P'>"
p143
sS'TFOOT'
p144
S"<class 'gluon.html.TFOOT'>"
p145
sS'XHTML'
p146
S"<class 'gluon.html.XHTML'>"
p147
sS'ON'
p148
S'True'
p149
sS'OL'
p150
S"<class 'gluon.html.OL'>"
p151
sS'TEXTAREA'
p152
S"<class 'gluon.html.TEXTAREA'>"
p153
sS'settings'
p154
S"<Storage {'layout_theme': 'Default', 'subtitle':...l_server': 'localhost', 'login_method': 'local'}>"
p155
sS'MENU'
p156
S"<class 'gluon.html.MENU'>"
p157
sS'IS_IMAGE'
p158
S"<class 'gluon.validators.IS_IMAGE'>"
p159
sS'EM'
p160
S"<class 'gluon.html.EM'>"
p161
sS'CODE'
p162
S"<class 'gluon.html.CODE'>"
p163
sS'HTTP'
p164
S"<class 'gluon.http.HTTP'>"
p165
sS'HR'
p166
S"<class 'gluon.html.HR'>"
p167
sS'IS_DATETIME'
p168
S"<class 'gluon.validators.IS_DATETIME'>"
p169
sS'Storage'
p170
S"<class 'gluon.storage.Storage'>"
p171
sS'STYLE'
p172
S"<class 'gluon.html.STYLE'>"
p173
sS'LABEL'
p174
S"<class 'gluon.html.LABEL'>"
p175
sS'CLEANUP'
p176
S"<class 'gluon.validators.CLEANUP'>"
p177
sS'plugins'
p178
S'<gluon.tools.PluginManager object>'
p179
sS'SELECT'
p180
S"<class 'gluon.html.SELECT'>"
p181
sS'use_janrain'
p182
S'<function use_janrain>'
p183
sS'CENTER'
p184
S"<class 'gluon.html.CENTER'>"
p185
sS'prettydate'
p186
S'<function prettydate>'
p187
sS'Crud'
p188
S"<class 'gluon.tools.Crud'>"
p189
sS'Auth'
p190
S"<class 'gluon.tools.Auth'>"
p191
sS'__builtins__'
p192
S"{'ArithmeticError': <type 'exceptions.ArithmeticError'>, 'AssertionError': <type 'exceptions.AssertionError'>, 'AttributeError': <type 'exceptions.AttributeError'>, 'BaseException': <type 'exceptions.BaseException'>, 'BufferError': <type 'exceptions.BufferError'>, 'BytesWarning': <type 'exceptions.BytesWarning'>, 'DeprecationWarning': <type 'exceptions.DeprecationWarning'>, 'EOFError': <type 'exceptions.EOFError'>, 'Ellipsis': Ellipsis, 'EnvironmentError': <type 'exceptions.EnvironmentError'>, ...}"
p193
sS'HTML'
p194
S"<class 'gluon.html.HTML'>"
p195
sS'SQLFORM'
p196
S"<class 'gluon.sqlhtml.SQLFORM'>"
p197
sS'LOAD'
p198
S'<function LOAD>'
p199
sS'redirect'
p200
S'<function redirect>'
p201
sS'FIELDSET'
p202
S"<class 'gluon.html.FIELDSET'>"
p203
sS'IS_EQUAL_TO'
p204
S"<class 'gluon.validators.IS_EQUAL_TO'>"
p205
sS'embed64'
p206
S'<function embed64>'
p207
sS'IS_LIST_OF'
p208
S"<class 'gluon.validators.IS_LIST_OF'>"
p209
sS'INPUT'
p210
S"<class 'gluon.html.INPUT'>"
p211
sS'EMBED'
p212
S"<class 'gluon.html.EMBED'>"
p213
sS'FORM'
p214
S"<class 'gluon.html.FORM'>"
p215
sS'H2'
p216
S"<class 'gluon.html.H2'>"
p217
sS'H3'
p218
S"<class 'gluon.html.H3'>"
p219
sS'BUTTON'
p220
S"<class 'gluon.html.BUTTON'>"
p221
sS'H1'
p222
S"<class 'gluon.html.H1'>"
p223
sS'H6'
p224
S"<class 'gluon.html.H6'>"
p225
sS'H4'
p226
S"<class 'gluon.html.H4'>"
p227
sS'H5'
p228
S"<class 'gluon.html.H5'>"
p229
sS'UL'
p230
S"<class 'gluon.html.UL'>"
p231
sS'IS_UPPER'
p232
S"<class 'gluon.validators.IS_UPPER'>"
p233
sS'xmlescape'
p234
S'<function xmlescape>'
p235
sS'IS_TIME'
p236
S"<class 'gluon.validators.IS_TIME'>"
p237
sS'OPTION'
p238
S"<class 'gluon.html.OPTION'>"
p239
sS'TITLE'
p240
S"<class 'gluon.html.TITLE'>"
p241
sS'CRYPT'
p242
S"<class 'gluon.validators.CRYPT'>"
p243
sS'IS_EMPTY_OR'
p244
S"<class 'gluon.validators.IS_EMPTY_OR'>"
p245
sS'MARKMIN'
p246
S"<class 'gluon.html.MARKMIN'>"
p247
sS'__name__'
p248
S"'__restricted__'"
p249
sS'STRONG'
p250
S"<class 'gluon.html.STRONG'>"
p251
sS'COL'
p252
S"<class 'gluon.html.COL'>"
p253
sS'service'
p254
S'<gluon.tools.Service object>'
p255
sS'SCRIPT'
p256
S"<class 'gluon.html.SCRIPT'>"
p257
sS'TABLE'
p258
S"<class 'gluon.html.TABLE'>"
p259
sS'IS_IPV4'
p260
S"<class 'gluon.validators.IS_IPV4'>"
p261
sS'IS_LENGTH'
p262
S"<class 'gluon.validators.IS_LENGTH'>"
p263
sS'IS_IPV6'
p264
S"<class 'gluon.validators.IS_IPV6'>"
p265
sS'XML'
p266
S"<class 'gluon.html.XML'>"
p267
sS'B'
S"<class 'gluon.html.B'>"
p268
sS'IMG'
p269
S"<class 'gluon.html.IMG'>"
p270
sS'SQLTABLE'
p271
S"<class 'gluon.sqlhtml.SQLTABLE'>"
p272
sS'IS_MATCH'
p273
S"<class 'gluon.validators.IS_MATCH'>"
p274
sS'IS_ALPHANUMERIC'
p275
S"<class 'gluon.validators.IS_ALPHANUMERIC'>"
p276
sS'SPAN'
p277
S"<class 'gluon.html.SPAN'>"
p278
sS'IS_JSON'
p279
S"<class 'gluon.validators.IS_JSON'>"
p280
sS'IS_IPADDRESS'
p281
S"<class 'gluon.validators.IS_IPADDRESS'>"
p282
sS'IS_SLUG'
p283
S"<class 'gluon.validators.IS_SLUG'>"
p284
sS'BEAUTIFY'
p285
S"<class 'gluon.html.BEAUTIFY'>"
p286
sS'META'
p287
S"<class 'gluon.html.META'>"
p288
sS'IS_DATE'
p289
S"<class 'gluon.validators.IS_DATE'>"
p290
sS'IS_EMAIL'
p291
S"<class 'gluon.validators.IS_EMAIL'>"
p292
sS'IS_NOT_EMPTY'
p293
S"<class 'gluon.validators.IS_NOT_EMPTY'>"
p294
sS'IS_FLOAT_IN_RANGE'
p295
S"<class 'gluon.validators.IS_FLOAT_IN_RANGE'>"
p296
sS'TBODY'
p297
S"<class 'gluon.html.TBODY'>"
p298
sS'CAT'
p299
S"<class 'gluon.html.CAT'>"
p300
sS'Field'
p301
S"<class 'gluon.dal.Field'>"
p302
sS'IS_LIST_OF_EMAILS'
p303
S"<class 'gluon.validators.IS_LIST_OF_EMAILS'>"
p304
sS'DIV'
p305
S"<class 'gluon.html.DIV'>"
p306
sS'LEGEND'
p307
S"<class 'gluon.html.LEGEND'>"
p308
sS'COLGROUP'
p309
S"<class 'gluon.html.COLGROUP'>"
p310
sS'DAL'
p311
S"<class 'gluon.dal.DAL'>"
p312
sS'TT'
p313
S"<class 'gluon.html.TT'>"
p314
sS'TR'
p315
S"<class 'gluon.html.TR'>"
p316
sS'LI'
p317
S"<class 'gluon.html.LI'>"
p318
sS'TH'
p319
S"<class 'gluon.html.TH'>"
p320
sS'TD'
p321
S"<class 'gluon.html.TD'>"
p322
sS'PluginManager'
p323
S"<class 'gluon.tools.PluginManager'>"
p324
sS'IS_URL'
p325
S"<class 'gluon.validators.IS_URL'>"
p326
sS'A'
S"<class 'gluon.html.A'>"
p327
sS'HEAD'
p328
S"<class 'gluon.html.HEAD'>"
p329
sS'IS_DATETIME_IN_RANGE'
p330
S"<class 'gluon.validators.IS_DATETIME_IN_RANGE'>"
p331
sS'populate'
p332
S'<function populate>'
p333
sS'I'
S"<class 'gluon.html.I'>"
p334
sS'crud'
p335
S'<gluon.tools.Crud object>'
p336
sS'IS_NOT_IN_DB'
p337
S"<class 'gluon.validators.IS_NOT_IN_DB'>"
p338
sg90
S"<Storage {'body': <cStringIO.StringO object at 0...a> at 0x06B5DAB0>, 'view': 'default/index.html'}>"
p339
sS'THEAD'
p340
S"<class 'gluon.html.THEAD'>"
p341
sS'ANY_OF'
p342
S"<class 'gluon.validators.ANY_OF'>"
p343
sS'IS_NULL_OR'
p344
S"<class 'gluon.validators.IS_EMPTY_OR'>"
p345
sg56
S"<Storage {'_vars': None, 'function': 'index', 'c...:\\\\Python27\\\\web2py\\\\applications\\\\taratorka\\\\'}>"
p346
sS'IS_EXPR'
p347
S"<class 'gluon.validators.IS_EXPR'>"
p348
sS'T'
S'<gluon.languages.translator object>'
p349
sS'IS_IN_SET'
p350
S"<class 'gluon.validators.IS_IN_SET'>"
p351
sS'mass'
p352
S"'You are welcomed taratorka'"
p353
sS'IS_UPLOAD_FILENAME'
p354
S"<class 'gluon.validators.IS_UPLOAD_FILENAME'>"
p355
sS'IS_DECIMAL_IN_RANGE'
p356
S"<class 'gluon.validators.IS_DECIMAL_IN_RANGE'>"
p357
sssS'traceback'
p358
S'Traceback (most recent call last):\n  File "/home/mdipierro/make_web2py/web2py/gluon/restricted.py", line 220, in restricted\n  File "C:\\Python27\\web2py\\applications\\taratorka\\views\\default/index.html", line 2, in <module>\nNameError: name \'message\' is not defined\n'
p359
s.